target datalayout = "e-m:e-p270:32:32-p271:32:32-p272:64:64-i64:64-i128:128-f80:128-n8:16:32:64-S128"
target triple = "x86_64-pc-linux-gnu"

%struct._packet_info = type { ptr, ptr, i32, i32, %struct.nstime_t, %struct.nstime_t, %struct.nstime_t, i8, ptr, ptr, ptr, ptr, %struct._address, %struct._address, %struct._address, %struct._address, %struct._address, %struct._address, i32, ptr, i8, [3 x i8], %struct.anon, i32, i32, i32, i32, ptr, i8, ptr, ptr, i16, i16, i32, i32, i16, i32, i32, ptr, ptr, ptr, i8, i8, i16, i16, i16, i32, i16, i16, ptr, ptr, ptr, ptr, ptr, i32, i32 }
%struct.nstime_t = type { i64, i32 }
%struct._address = type { i32, i32, ptr, ptr }
%struct.anon = type { i8, [3 x i8] }

@ett_osc_packet = internal global i32 0, align 4
@.str.116 = private unnamed_addr constant [4 x i8] c"OSC\00", align 1
@proto_osc = internal global i32 0, align 4

; Function Attrs: null_pointer_is_valid sspstrong uwtable
define internal void @dissect_osc_pdu_common(ptr noundef %0, ptr noundef %1, ptr noundef %2, ptr noundef %3, i32 noundef %4, i32 noundef %5) #0 {
  %7 = alloca ptr, align 8
  %8 = alloca ptr, align 8
  %9 = alloca ptr, align 8
  %10 = alloca ptr, align 8
  %11 = alloca i32, align 4
  %12 = alloca i32, align 4
  %13 = alloca ptr, align 8
  %14 = alloca ptr, align 8
  %15 = alloca i32, align 4
  store ptr %0, ptr %7, align 8
  store ptr %1, ptr %8, align 8
  store ptr %2, ptr %9, align 8
  store ptr %3, ptr %10, align 8
  store i32 %4, ptr %11, align 4
  store i32 %5, ptr %12, align 4
  %16 = load ptr, ptr %8, align 8
  %17 = getelementptr inbounds nuw %struct._packet_info, ptr %16, i32 0, i32 1
  %18 = load ptr, ptr %17, align 8
  call void @col_set_str(ptr noundef %18, i32 noundef 35, ptr noundef @.str.116)
  %19 = load ptr, ptr %8, align 8
  %20 = getelementptr inbounds nuw %struct._packet_info, ptr %19, i32 0, i32 1
  %21 = load ptr, ptr %20, align 8
  call void @col_clear(ptr noundef %21, i32 noundef 25)
  %22 = load ptr, ptr %9, align 8
  %23 = icmp ne ptr %22, null
  br i1 %23, label %24, label %63

24:                                               ; preds = %6
  call void @llvm.lifetime.start.p0(i64 8, ptr %13) #9
  call void @llvm.lifetime.start.p0(i64 8, ptr %14) #9
  %25 = load ptr, ptr %9, align 8
  %26 = load i32, ptr @proto_osc, align 4
  %27 = load ptr, ptr %7, align 8
  %28 = call ptr @proto_tree_add_item(ptr noundef %25, i32 noundef %26, ptr noundef %27, i32 noundef 0, i32 noundef -1, i32 noundef 0)
  store ptr %28, ptr %13, align 8
  %29 = load ptr, ptr %13, align 8
  %30 = load i32, ptr @ett_osc_packet, align 4
  %31 = call ptr @proto_item_add_subtree(ptr noundef %29, i32 noundef %30)
  store ptr %31, ptr %14, align 8
  %32 = load ptr, ptr %7, align 8
  %33 = load i32, ptr %11, align 4
  %34 = call zeroext i8 @tvb_get_uint8(ptr noundef %32, i32 noundef %33)
  %35 = zext i8 %34 to i32
  switch i32 %35, label %58 [
    i32 35, label %36
    i32 47, label %47
  ]

36:                                               ; preds = %24
  %37 = load ptr, ptr %7, align 8
  %38 = load ptr, ptr %8, align 8
  %39 = load ptr, ptr %13, align 8
  %40 = load ptr, ptr %14, align 8
  %41 = load i32, ptr %11, align 4
  %42 = load i32, ptr %12, align 4
  %43 = call i32 @dissect_osc_bundle(ptr noundef %37, ptr noundef %38, ptr noundef %39, ptr noundef %40, i32 noundef %41, i32 noundef %42)
  %44 = icmp ne i32 %43, 0
  br i1 %44, label %45, label %46

45:                                               ; preds = %36
  store i32 1, ptr %15, align 4
  br label %60

46:                                               ; preds = %36
  br label %59

47:                                               ; preds = %24
  %48 = load ptr, ptr %7, align 8
  %49 = load ptr, ptr %8, align 8
  %50 = load ptr, ptr %13, align 8
  %51 = load ptr, ptr %14, align 8
  %52 = load i32, ptr %11, align 4
  %53 = load i32, ptr %12, align 4
  %54 = call i32 @dissect_osc_message(ptr noundef %48, ptr noundef %49, ptr noundef %50, ptr noundef %51, i32 noundef %52, i32 noundef %53)
  %55 = icmp ne i32 %54, 0
  br i1 %55, label %56, label %57

56:                                               ; preds = %47
  store i32 1, ptr %15, align 4
  br label %60

57:                                               ; preds = %47
  br label %59

58:                                               ; preds = %24
  store i32 1, ptr %15, align 4
  br label %60

59:                                               ; preds = %57, %46
  store i32 0, ptr %15, align 4
  br label %60

60:                                               ; preds = %59, %58, %56, %45
  call void @llvm.lifetime.end.p0(i64 8, ptr %14) #9
  call void @llvm.lifetime.end.p0(i64 8, ptr %13) #9
  %61 = load i32, ptr %15, align 4
  switch i32 %61, label %64 [
    i32 0, label %62
    i32 1, label %63
  ]

62:                                               ; preds = %60
  br label %63

63:                                               ; preds = %60, %62, %6
  ret void

64:                                               ; preds = %60
  unreachable
}