; Function Attrs: null_pointer_is_valid sspstrong uwtable
define internal fastcc void @dissect_osc_pdu_common(ptr noundef %0, ptr noundef %1, ptr noundef %2, i32 noundef range(i32 0, 5) %3, i32 noundef %4) unnamed_addr #0 {
  %6 = getelementptr inbounds nuw i8, ptr %1, i64 8
  %7 = load ptr, ptr %6, align 8
  tail call void @col_set_str(ptr noundef %7, i32 noundef 35, ptr noundef nonnull @.str.116)
  %8 = load ptr, ptr %6, align 8
  tail call void @col_clear(ptr noundef %8, i32 noundef 25)
  %.not = icmp eq ptr %2, null
  br i1 %.not, label %19, label %9

9:                                                ; preds = %5
  %10 = load i32, ptr @proto_osc, align 4
  %11 = tail call ptr @proto_tree_add_item(ptr noundef nonnull %2, i32 noundef %10, ptr noundef %0, i32 noundef 0, i32 noundef -1, i32 noundef 0)
  %12 = load i32, ptr @ett_osc_packet, align 4
  %13 = tail call ptr @proto_item_add_subtree(ptr noundef %11, i32 noundef %12)
  %14 = tail call zeroext i8 @tvb_get_uint8(ptr noundef %0, i32 noundef %3)
  switch i8 %14, label %19 [
    i8 35, label %15
    i8 47, label %17
  ]

15:                                               ; preds = %9
  %16 = tail call fastcc i32 @dissect_osc_bundle(ptr noundef %0, ptr noundef %1, ptr noundef %13, i32 noundef %3, i32 noundef %4)
  br label %19

17:                                               ; preds = %9
  %18 = tail call fastcc i32 @dissect_osc_message(ptr noundef %0, ptr noundef %1, ptr noundef %13, i32 noundef %3, i32 noundef %4)
  br label %19

19:                                               ; preds = %17, %15, %9, %5
  ret void
}